target datalayout = "e-m:e-p270:32:32-p271:32:32-p272:64:64-i64:64-i128:128-f80:128-n8:16:32:64-S128"
target triple = "x86_64-pc-linux-gnu"

%struct.ZSTD_customMem = type { ptr, ptr, ptr }
%struct.ZSTD_DCtx_s = type { ptr, ptr, ptr, ptr, %struct.ZSTD_entropyDTables_t, [640 x i32], ptr, ptr, ptr, ptr, i64, %struct.ZSTD_FrameHeader, i64, i64, i32, i32, i32, i32, %struct.XXH64_state_s, i64, i32, i32, i32, ptr, %struct.ZSTD_customMem, i64, i64, i64, i32, i32, ptr, ptr, i32, i32, i32, ptr, i32, i32, i32, i32, ptr, i64, i64, i64, ptr, i64, i64, i64, i64, ptr, i32, i32, i32, i32, i32, %struct.ZSTD_outBuffer_s, ptr, ptr, i32, [65568 x i8], [18 x i8], i64, i64 }
%struct.ZSTD_entropyDTables_t = type { [513 x %struct.ZSTD_seqSymbol], [257 x %struct.ZSTD_seqSymbol], [513 x %struct.ZSTD_seqSymbol], [4097 x i32], [3 x i32], [157 x i32] }
%struct.ZSTD_seqSymbol = type { i16, i8, i8, i32 }
%struct.ZSTD_FrameHeader = type { i64, i64, i32, i32, i32, i32, i32, i32, i32 }
%struct.XXH64_state_s = type { i64, [4 x i64], [4 x i64], i32, i32, i64 }
%struct.ZSTD_outBuffer_s = type { ptr, i64, i64 }

; Function Attrs: nounwind uwtable
define internal void @ZSTD_clearDict(ptr noundef %0) #0 {
  %2 = alloca ptr, align 8
  store ptr %0, ptr %2, align 8, !tbaa !3
  %3 = load ptr, ptr %2, align 8, !tbaa !3
  %4 = getelementptr inbounds nuw %struct.ZSTD_DCtx_s, ptr %3, i32 0, i32 30
  %5 = load ptr, ptr %4, align 8, !tbaa !8
  %6 = call i64 @ZSTD_freeDDict(ptr noundef %5)
  %7 = load ptr, ptr %2, align 8, !tbaa !3
  %8 = getelementptr inbounds nuw %struct.ZSTD_DCtx_s, ptr %7, i32 0, i32 30
  store ptr null, ptr %8, align 8, !tbaa !8
  %9 = load ptr, ptr %2, align 8, !tbaa !3
  %10 = getelementptr inbounds nuw %struct.ZSTD_DCtx_s, ptr %9, i32 0, i32 31
  store ptr null, ptr %10, align 8, !tbaa !27
  %11 = load ptr, ptr %2, align 8, !tbaa !3
  %12 = getelementptr inbounds nuw %struct.ZSTD_DCtx_s, ptr %11, i32 0, i32 34
  store i32 0, ptr %12, align 8, !tbaa !30
  ret void
}

; Function Attrs: nounwind uwtable
define i64 @ZSTD_decompress_usingDDict(ptr noundef %0, ptr noundef %1, i64 noundef %2, ptr noundef %3, i64 noundef %4, ptr noundef %5) #0 {
  %7 = alloca ptr, align 8
  %8 = alloca ptr, align 8
  %9 = alloca i64, align 8
  %10 = alloca ptr, align 8
  %11 = alloca i64, align 8
  %12 = alloca ptr, align 8
  store ptr %0, ptr %7, align 8, !tbaa !3
  store ptr %1, ptr %8, align 8, !tbaa !23
  store i64 %2, ptr %9, align 8, !tbaa !24
  store ptr %3, ptr %10, align 8, !tbaa !23
  store i64 %4, ptr %11, align 8, !tbaa !24
  store ptr %5, ptr %12, align 8, !tbaa !76
  %13 = load ptr, ptr %7, align 8, !tbaa !3
  %14 = load ptr, ptr %8, align 8, !tbaa !23
  %15 = load i64, ptr %9, align 8, !tbaa !24
  %16 = load ptr, ptr %10, align 8, !tbaa !23
  %17 = load i64, ptr %11, align 8, !tbaa !24
  %18 = load ptr, ptr %12, align 8, !tbaa !76
  %19 = call i64 @ZSTD_decompressMultiFrame(ptr noundef %13, ptr noundef %14, i64 noundef %15, ptr noundef %16, i64 noundef %17, ptr noundef null, i64 noundef 0, ptr noundef %18)
  ret i64 %19
}

; Function Attrs: nounwind uwtable
define internal ptr @ZSTD_getDDict(ptr noundef %0) #0 {
  %2 = alloca ptr, align 8
  %3 = alloca ptr, align 8
  store ptr %0, ptr %3, align 8, !tbaa !3
  %4 = load ptr, ptr %3, align 8, !tbaa !3
  %5 = getelementptr inbounds nuw %struct.ZSTD_DCtx_s, ptr %4, i32 0, i32 34
  %6 = load i32, ptr %5, align 8, !tbaa !30
  switch i32 %6, label %7 [
    i32 0, label %8
    i32 -1, label %10
    i32 1, label %14
  ]

7:                                                ; preds = %1
  br label %8

8:                                                ; preds = %1, %7
  %9 = load ptr, ptr %3, align 8, !tbaa !3
  call void @ZSTD_clearDict(ptr noundef %9)
  store ptr null, ptr %2, align 8
  br label %20

10:                                               ; preds = %1
  %11 = load ptr, ptr %3, align 8, !tbaa !3
  %12 = getelementptr inbounds nuw %struct.ZSTD_DCtx_s, ptr %11, i32 0, i32 31
  %13 = load ptr, ptr %12, align 8, !tbaa !27
  store ptr %13, ptr %2, align 8
  br label %20

14:                                               ; preds = %1
  %15 = load ptr, ptr %3, align 8, !tbaa !3
  %16 = getelementptr inbounds nuw %struct.ZSTD_DCtx_s, ptr %15, i32 0, i32 34
  store i32 0, ptr %16, align 8, !tbaa !30
  %17 = load ptr, ptr %3, align 8, !tbaa !3
  %18 = getelementptr inbounds nuw %struct.ZSTD_DCtx_s, ptr %17, i32 0, i32 31
  %19 = load ptr, ptr %18, align 8, !tbaa !27
  store ptr %19, ptr %2, align 8
  br label %20

20:                                               ; preds = %14, %10, %8
  %21 = load ptr, ptr %2, align 8
  ret ptr %21
}

; Function Attrs: nounwind uwtable
define i64 @ZSTD_decompressDCtx(ptr noundef %0, ptr noundef %1, i64 noundef %2, ptr noundef %3, i64 noundef %4) #0 {
  %6 = alloca ptr, align 8
  %7 = alloca ptr, align 8
  %8 = alloca i64, align 8
  %9 = alloca ptr, align 8
  %10 = alloca i64, align 8
  store ptr %0, ptr %6, align 8, !tbaa !3
  store ptr %1, ptr %7, align 8, !tbaa !23
  store i64 %2, ptr %8, align 8, !tbaa !24
  store ptr %3, ptr %9, align 8, !tbaa !23
  store i64 %4, ptr %10, align 8, !tbaa !24
  %11 = load ptr, ptr %6, align 8, !tbaa !3
  %12 = load ptr, ptr %7, align 8, !tbaa !23
  %13 = load i64, ptr %8, align 8, !tbaa !24
  %14 = load ptr, ptr %9, align 8, !tbaa !23
  %15 = load i64, ptr %10, align 8, !tbaa !24
  %16 = load ptr, ptr %6, align 8, !tbaa !3
  %17 = call ptr @ZSTD_getDDict(ptr noundef %16)
  %18 = call i64 @ZSTD_decompress_usingDDict(ptr noundef %11, ptr noundef %12, i64 noundef %13, ptr noundef %14, i64 noundef %15, ptr noundef %17)
  ret i64 %18
}