; Function Attrs: nounwind uwtable
define i64 @ZSTD_decompressDCtx(ptr noundef %0, ptr noundef %1, i64 noundef %2, ptr noundef %3, i64 noundef %4) local_unnamed_addr #0 {
  %6 = getelementptr inbounds nuw i8, ptr %0, i64 30208
  %7 = load i32, ptr %6, align 8, !tbaa !23
  switch i32 %7, label %8 [
    i32 1, label %15
    i32 -1, label %12
  ]

8:                                                ; preds = %5
  %9 = getelementptr inbounds nuw i8, ptr %0, i64 30184
  %10 = load ptr, ptr %9, align 8, !tbaa !3
  %11 = tail call i64 @ZSTD_freeDDict(ptr noundef %10) #17
  store i32 0, ptr %6, align 8, !tbaa !23
  tail call void @llvm.memset.p0.i64(ptr noundef nonnull align 8 dereferenceable(16) %9, i8 0, i64 16, i1 false)
  br label %ZSTD_getDDict.exit

12:                                               ; preds = %5
  %13 = getelementptr inbounds nuw i8, ptr %0, i64 30192
  %14 = load ptr, ptr %13, align 8, !tbaa !109
  br label %ZSTD_getDDict.exit

15:                                               ; preds = %5
  store i32 0, ptr %6, align 8, !tbaa !23
  %16 = getelementptr inbounds nuw i8, ptr %0, i64 30192
  %17 = load ptr, ptr %16, align 8, !tbaa !109
  br label %ZSTD_getDDict.exit

ZSTD_getDDict.exit:                               ; preds = %8, %12, %15
  %.0.i = phi ptr [ null, %8 ], [ %14, %12 ], [ %17, %15 ]
  %18 = tail call fastcc i64 @ZSTD_decompressMultiFrame(ptr noundef nonnull %0, ptr noundef %1, i64 noundef %2, ptr noundef %3, i64 noundef %4, ptr noundef null, i64 noundef 0, ptr noundef %.0.i)
  ret i64 %18
}